; Function Attrs: nofree norecurse nosync nounwind memory(argmem: readwrite) uwtable
define internal void @eotf_linear_inv(double noundef %0, double noundef %1, ptr noundef captures(none) %2) #5 {
  %4 = fsub nsz double %0, %1
  br label %6

5:                                                ; preds = %6
  ret void

6:                                                ; preds = %3, %6
  %indvars.iv = phi i64 [ 0, %3 ], [ %indvars.iv.next, %6 ]
  %7 = getelementptr inbounds nuw double, ptr %2, i64 %indvars.iv
  %8 = load double, ptr %7, align 8, !tbaa !16
  %9 = fsub nsz double %8, %1
  %10 = fdiv nsz double %9, %4
  store double %10, ptr %7, align 8, !tbaa !16
  %indvars.iv.next = add nuw nsw i64 %indvars.iv, 1
  %exitcond.not = icmp eq i64 %indvars.iv.next, 3
  br i1 %exitcond.not, label %5, label %6, !llvm.loop !30
}